; Function Attrs: mustprogress uwtable
define hidden noundef i64 @_ZNK12opencv_caffe16SoftmaxParameter12ByteSizeLongEv(ptr noundef nonnull align 8 dereferenceable(32) %0) unnamed_addr #3 align 2 {
  %2 = getelementptr inbounds nuw i8, ptr %0, i64 16
  %3 = load i32, ptr %2, align 8, !tbaa !71
  %4 = and i32 %3, 3
  %.not = icmp eq i32 %4, 0
  br i1 %.not, label %31, label %5

5:                                                ; preds = %1
  %6 = and i32 %3, 1
  %.not6 = icmp eq i32 %6, 0
  br i1 %.not6, label %18, label %7

7:                                                ; preds = %5
  %8 = getelementptr inbounds nuw i8, ptr %0, i64 24
  %9 = load i32, ptr %8, align 8, !tbaa !550
  %10 = or i32 %9, 1
  %11 = sext i32 %10 to i64
  %12 = tail call range(i64 0, 65) i64 @llvm.ctlz.i64(i64 %11, i1 true)
  %13 = xor i64 %12, 63
  %14 = mul nuw nsw i64 %13, 9
  %15 = add nuw nsw i64 %14, 73
  %16 = lshr i64 %15, 6
  %17 = add nuw nsw i64 %16, 1
  br label %18

18:                                               ; preds = %7, %5
  %.1 = phi i64 [ %17, %7 ], [ 0, %5 ]
  %19 = and i32 %3, 2
  %.not7 = icmp eq i32 %19, 0
  br i1 %.not7, label %31, label %20

20:                                               ; preds = %18
  %21 = getelementptr inbounds nuw i8, ptr %0, i64 28
  %22 = load i32, ptr %21, align 4, !tbaa !552
  %23 = or i32 %22, 1
  %24 = sext i32 %23 to i64
  %25 = tail call range(i64 0, 65) i64 @llvm.ctlz.i64(i64 %24, i1 true)
  %26 = xor i64 %25, 63
  %27 = mul nuw nsw i64 %26, 9
  %28 = add nuw nsw i64 %27, 137
  %29 = lshr i64 %28, 6
  %30 = add nuw nsw i64 %29, %.1
  br label %31

31:                                               ; preds = %18, %20, %1
  %.0 = phi i64 [ %30, %20 ], [ %.1, %18 ], [ 0, %1 ]
  %32 = getelementptr inbounds nuw i8, ptr %0, i64 20
  %33 = tail call noundef i64 @_ZNK6google8protobuf7Message29MaybeComputeUnknownFieldsSizeEmPNS0_8internal10CachedSizeE(ptr noundef nonnull align 8 dereferenceable(16) %0, i64 noundef %.0, ptr noundef nonnull %32)
  ret i64 %33
}